target datalayout = "e-m:e-p270:32:32-p271:32:32-p272:64:64-i64:64-i128:128-f80:128-n8:16:32:64-S128"
target triple = "x86_64-pc-linux-gnu"

%class.C1G1PreBarrierCodeGenClosure = type { %class.StubAssemblerCodeGenClosure }
%class.StubAssemblerCodeGenClosure = type { ptr }
%class.C1G1PostBarrierCodeGenClosure = type { %class.StubAssemblerCodeGenClosure }
%class.G1BarrierSetC1 = type { %class.ModRefBarrierSetC1, ptr, ptr }
%class.ModRefBarrierSetC1 = type { %class.BarrierSetC1 }
%class.BarrierSetC1 = type { ptr }

@.str.6 = private unnamed_addr constant [20 x i8] c"g1_pre_barrier_slow\00", align 1
@.str.7 = private unnamed_addr constant [21 x i8] c"g1_post_barrier_slow\00", align 1
@_ZTV28C1G1PreBarrierCodeGenClosure = linkonce_odr hidden unnamed_addr constant { [3 x ptr] } { [3 x ptr] [ptr null, ptr null, ptr @_ZN28C1G1PreBarrierCodeGenClosure13generate_codeEP13StubAssembler] }, comdat, align 8
@_ZTV27StubAssemblerCodeGenClosure = linkonce_odr hidden unnamed_addr constant { [3 x ptr] } { [3 x ptr] [ptr null, ptr null, ptr @__cxa_pure_virtual] }, comdat, align 8
@_ZTV29C1G1PostBarrierCodeGenClosure = linkonce_odr hidden unnamed_addr constant { [3 x ptr] } { [3 x ptr] [ptr null, ptr null, ptr @_ZN29C1G1PostBarrierCodeGenClosure13generate_codeEP13StubAssembler] }, comdat, align 8

; Function Attrs: mustprogress nounwind uwtable
define linkonce_odr hidden void @_ZN27StubAssemblerCodeGenClosureC2Ev(ptr noundef nonnull align 8 dereferenceable(8) %0) unnamed_addr #1 comdat align 2 {
  %2 = alloca ptr, align 8
  store ptr %0, ptr %2, align 8
  %3 = load ptr, ptr %2, align 8
  store ptr getelementptr inbounds inrange(-16, 8) ({ [3 x ptr] }, ptr @_ZTV27StubAssemblerCodeGenClosure, i32 0, i32 0, i32 2), ptr %3, align 8
  ret void
}

; Function Attrs: mustprogress nounwind uwtable
define linkonce_odr hidden void @_ZN29C1G1PostBarrierCodeGenClosureC2Ev(ptr noundef nonnull align 8 dereferenceable(8) %0) unnamed_addr #1 comdat align 2 {
  %2 = alloca ptr, align 8
  store ptr %0, ptr %2, align 8
  %3 = load ptr, ptr %2, align 8
  call void @_ZN27StubAssemblerCodeGenClosureC2Ev(ptr noundef nonnull align 8 dereferenceable(8) %3) #7
  store ptr getelementptr inbounds inrange(-16, 8) ({ [3 x ptr] }, ptr @_ZTV29C1G1PostBarrierCodeGenClosure, i32 0, i32 0, i32 2), ptr %3, align 8
  ret void
}

; Function Attrs: mustprogress nounwind uwtable
define linkonce_odr hidden void @_ZN28C1G1PreBarrierCodeGenClosureC2Ev(ptr noundef nonnull align 8 dereferenceable(8) %0) unnamed_addr #1 comdat align 2 {
  %2 = alloca ptr, align 8
  store ptr %0, ptr %2, align 8
  %3 = load ptr, ptr %2, align 8
  call void @_ZN27StubAssemblerCodeGenClosureC2Ev(ptr noundef nonnull align 8 dereferenceable(8) %3) #7
  store ptr getelementptr inbounds inrange(-16, 8) ({ [3 x ptr] }, ptr @_ZTV28C1G1PreBarrierCodeGenClosure, i32 0, i32 0, i32 2), ptr %3, align 8
  ret void
}

; Function Attrs: mustprogress nounwind uwtable
define hidden void @_ZN14G1BarrierSetC125generate_c1_runtime_stubsEP10BufferBlob(ptr noundef nonnull align 8 dereferenceable(24) %0, ptr noundef %1) unnamed_addr #1 align 2 {
  %3 = alloca ptr, align 8
  %4 = alloca ptr, align 8
  %5 = alloca %class.C1G1PreBarrierCodeGenClosure, align 8
  %6 = alloca %class.C1G1PostBarrierCodeGenClosure, align 8
  store ptr %0, ptr %3, align 8
  store ptr %1, ptr %4, align 8
  %7 = load ptr, ptr %3, align 8
  call void @_ZN28C1G1PreBarrierCodeGenClosureC2Ev(ptr noundef nonnull align 8 dereferenceable(8) %5) #7
  call void @_ZN29C1G1PostBarrierCodeGenClosureC2Ev(ptr noundef nonnull align 8 dereferenceable(8) %6) #7
  %8 = load ptr, ptr %4, align 8
  %9 = call noundef ptr @_ZN8Runtime113generate_blobEP10BufferBlobiPKcbP27StubAssemblerCodeGenClosure(ptr noundef %8, i32 noundef -1, ptr noundef @.str.6, i1 noundef zeroext false, ptr noundef %5)
  %10 = getelementptr inbounds %class.G1BarrierSetC1, ptr %7, i32 0, i32 1
  store ptr %9, ptr %10, align 8
  %11 = load ptr, ptr %4, align 8
  %12 = call noundef ptr @_ZN8Runtime113generate_blobEP10BufferBlobiPKcbP27StubAssemblerCodeGenClosure(ptr noundef %11, i32 noundef -1, ptr noundef @.str.7, i1 noundef zeroext false, ptr noundef %6)
  %13 = getelementptr inbounds %class.G1BarrierSetC1, ptr %7, i32 0, i32 2
  store ptr %12, ptr %13, align 8
  ret void
}