; Function Attrs: mustprogress nounwind uwtable
define hidden void @_ZN14G1BarrierSetC125generate_c1_runtime_stubsEP10BufferBlob(ptr nocapture noundef nonnull writeonly align 8 dereferenceable(24) %0, ptr noundef %1) unnamed_addr #0 align 2 {
  %3 = alloca %class.C1G1PreBarrierCodeGenClosure, align 8
  %4 = alloca %class.C1G1PostBarrierCodeGenClosure, align 8
  store ptr getelementptr inbounds inrange(-16, 8) (i8, ptr @_ZTV28C1G1PreBarrierCodeGenClosure, i64 16), ptr %3, align 8
  store ptr getelementptr inbounds inrange(-16, 8) (i8, ptr @_ZTV29C1G1PostBarrierCodeGenClosure, i64 16), ptr %4, align 8
  %5 = call noundef ptr @_ZN8Runtime113generate_blobEP10BufferBlobiPKcbP27StubAssemblerCodeGenClosure(ptr noundef %1, i32 noundef -1, ptr noundef nonnull @.str.6, i1 noundef zeroext false, ptr noundef nonnull %3) #5
  %6 = getelementptr inbounds i8, ptr %0, i64 8
  store ptr %5, ptr %6, align 8
  %7 = call noundef ptr @_ZN8Runtime113generate_blobEP10BufferBlobiPKcbP27StubAssemblerCodeGenClosure(ptr noundef %1, i32 noundef -1, ptr noundef nonnull @.str.7, i1 noundef zeroext false, ptr noundef nonnull %4) #5
  %8 = getelementptr inbounds i8, ptr %0, i64 16
  store ptr %7, ptr %8, align 8
  ret void
}